; Function Attrs: nounwind uwtable
define internal fastcc ptr @rtree_leaf_init(ptr noundef %0, ptr noundef %1, ptr noundef captures(none) %2) unnamed_addr #0 {
  %4 = getelementptr inbounds nuw i8, ptr %1, i64 80
  %5 = tail call i32 @pthread_mutex_trylock(ptr noundef nonnull %4) #5
  %.not.i = icmp eq i32 %5, 0
  br i1 %.not.i, label %8, label %atomic_store_b.exit.i

atomic_store_b.exit.i:                            ; preds = %3
  %6 = getelementptr inbounds nuw i8, ptr %1, i64 8
  tail call void @duckdb_je_malloc_mutex_lock_slow(ptr noundef nonnull %6) #5
  %7 = getelementptr inbounds nuw i8, ptr %1, i64 72
  store atomic i8 1, ptr %7 monotonic, align 1
  br label %8

8:                                                ; preds = %atomic_store_b.exit.i, %3
  %9 = getelementptr inbounds nuw i8, ptr %1, i64 64
  %10 = load i64, ptr %9, align 8, !tbaa !16
  %11 = add i64 %10, 1
  store i64 %11, ptr %9, align 8, !tbaa !16
  %12 = getelementptr inbounds nuw i8, ptr %1, i64 56
  %13 = load ptr, ptr %12, align 8, !tbaa !22
  %.not.i.i = icmp eq ptr %13, %0
  br i1 %.not.i.i, label %atomic_load_p.exit, label %14

14:                                               ; preds = %8
  store ptr %0, ptr %12, align 8, !tbaa !22
  %15 = getelementptr inbounds nuw i8, ptr %1, i64 48
  %16 = load i64, ptr %15, align 8, !tbaa !23
  %17 = add i64 %16, 1
  store i64 %17, ptr %15, align 8, !tbaa !23
  br label %atomic_load_p.exit

atomic_load_p.exit:                               ; preds = %8, %14
  %18 = load atomic i64, ptr %2 monotonic, align 8
  %.0.i = inttoptr i64 %18 to ptr
  %19 = icmp eq i64 %18, 0
  br i1 %19, label %20, label %24

20:                                               ; preds = %atomic_load_p.exit
  %.val = load ptr, ptr %1, align 8, !tbaa !3
  %21 = tail call ptr @duckdb_je_base_alloc_rtree(ptr noundef %0, ptr noundef %.val, i64 noundef 2097152) #5
  %22 = icmp eq ptr %21, null
  br i1 %22, label %24, label %atomic_store_p.exit

atomic_store_p.exit:                              ; preds = %20
  %23 = ptrtoint ptr %21 to i64
  store atomic i64 %23, ptr %2 release, align 8
  br label %24

24:                                               ; preds = %atomic_load_p.exit, %atomic_store_p.exit, %20
  %.015 = phi ptr [ null, %20 ], [ %21, %atomic_store_p.exit ], [ %.0.i, %atomic_load_p.exit ]
  %25 = getelementptr inbounds nuw i8, ptr %1, i64 72
  store atomic i8 0, ptr %25 monotonic, align 1
  %26 = tail call i32 @pthread_mutex_unlock(ptr noundef nonnull %4) #5
  ret ptr %.015
}